; Function Attrs: mustprogress uwtable
define hidden noundef i64 @_ZN3ue213findMaxOffsetERKNS_8NGHolderERKNS_13ReportManagerE(ptr noundef nonnull readonly align 8 captures(none) dereferenceable(136) %0, ptr noundef nonnull align 8 dereferenceable(505) %1) local_unnamed_addr #0 personality ptr @__gxx_personality_v0 {
  %3 = alloca %"class.std::set", align 8
  %4 = alloca %"class.std::set", align 8
  call void @llvm.lifetime.start.p0(i64 48, ptr nonnull %3) #16
  call void @_ZN3ue211all_reportsERKNS_8NGHolderE(ptr dead_on_unwind nonnull writable sret(%"class.std::set") align 8 %3, ptr noundef nonnull align 8 dereferenceable(136) %0)
  call void @llvm.lifetime.start.p0(i64 48, ptr nonnull %4) #16
  invoke void @_ZN3ue211all_reportsERKNS_8NGHolderE(ptr dead_on_unwind nonnull writable sret(%"class.std::set") align 8 %4, ptr noundef nonnull align 8 dereferenceable(136) %0)
          to label %5 unwind label %9

5:                                                ; preds = %2
  %6 = getelementptr inbounds nuw i8, ptr %4, i64 24
  %7 = load ptr, ptr %6, align 8
  %8 = getelementptr inbounds nuw i8, ptr %4, i64 8
  %.not30 = icmp eq ptr %7, %8
  br i1 %.not30, label %.critedge, label %.lr.ph

9:                                                ; preds = %2
  %10 = landingpad { ptr, i32 }
          cleanup
  br label %34

.lr.ph:                                           ; preds = %5, %_ZNK3ue26Report9hasBoundsEv.exit.thread
  %.032 = phi i64 [ %.sroa.speculated, %_ZNK3ue26Report9hasBoundsEv.exit.thread ], [ 0, %5 ]
  %.sroa.021.031 = phi ptr [ %21, %_ZNK3ue26Report9hasBoundsEv.exit.thread ], [ %7, %5 ]
  %11 = getelementptr inbounds nuw i8, ptr %.sroa.021.031, i64 32
  %12 = load i32, ptr %11, align 4
  %13 = invoke noundef nonnull align 8 dereferenceable(72) ptr @_ZNK3ue213ReportManager9getReportEj(ptr noundef nonnull align 8 dereferenceable(505) %1, i32 noundef %12)
          to label %14 unwind label %22

14:                                               ; preds = %.lr.ph
  %15 = getelementptr inbounds nuw i8, ptr %13, i64 8
  %16 = load i64, ptr %15, align 8
  %.not.i = icmp eq i64 %16, 0
  %17 = getelementptr inbounds nuw i8, ptr %13, i64 16
  %18 = load i64, ptr %17, align 8
  %.not1.i = icmp eq i64 %18, -1
  %or.cond.i = select i1 %.not.i, i1 %.not1.i, i1 false
  br i1 %or.cond.i, label %_ZNK3ue26Report9hasBoundsEv.exit, label %_ZNK3ue26Report9hasBoundsEv.exit.thread

_ZNK3ue26Report9hasBoundsEv.exit:                 ; preds = %14
  %19 = getelementptr inbounds nuw i8, ptr %13, i64 24
  %20 = load i64, ptr %19, align 8
  %.not27 = icmp eq i64 %20, 0
  br i1 %.not27, label %.critedge, label %_ZNK3ue26Report9hasBoundsEv.exit.thread

_ZNK3ue26Report9hasBoundsEv.exit.thread:          ; preds = %14, %_ZNK3ue26Report9hasBoundsEv.exit
  %.sroa.speculated = call i64 @llvm.umax.i64(i64 %.032, i64 %18)
  %21 = call noundef ptr @_ZSt18_Rb_tree_incrementPKSt18_Rb_tree_node_base(ptr noundef nonnull %.sroa.021.031) #18
  %.not = icmp eq ptr %21, %8
  br i1 %.not, label %.critedge, label %.lr.ph

22:                                               ; preds = %.lr.ph
  %23 = landingpad { ptr, i32 }
          cleanup
  call void @_ZNSt3setIjSt4lessIjESaIjEED2Ev(ptr noundef nonnull align 8 dereferenceable(48) %4) #16
  call void @llvm.lifetime.end.p0(i64 48, ptr nonnull %4) #16
  br label %34

.critedge:                                        ; preds = %_ZNK3ue26Report9hasBoundsEv.exit.thread, %_ZNK3ue26Report9hasBoundsEv.exit, %5
  %.not.lcssa = phi i64 [ 0, %5 ], [ -1, %_ZNK3ue26Report9hasBoundsEv.exit ], [ %.sroa.speculated, %_ZNK3ue26Report9hasBoundsEv.exit.thread ]
  %24 = getelementptr inbounds nuw i8, ptr %4, i64 16
  %25 = load ptr, ptr %24, align 8
  invoke void @_ZNSt8_Rb_treeIjjSt9_IdentityIjESt4lessIjESaIjEE8_M_eraseEPSt13_Rb_tree_nodeIjE(ptr noundef nonnull align 8 dereferenceable(48) %4, ptr noundef %25)
          to label %_ZNSt3setIjSt4lessIjESaIjEED2Ev.exit unwind label %26

26:                                               ; preds = %.critedge
  %27 = landingpad { ptr, i32 }
          catch ptr null
  %28 = extractvalue { ptr, i32 } %27, 0
  call void @__clang_call_terminate(ptr %28) #17
  unreachable

_ZNSt3setIjSt4lessIjESaIjEED2Ev.exit:             ; preds = %.critedge
  call void @llvm.lifetime.end.p0(i64 48, ptr nonnull %4) #16
  %29 = getelementptr inbounds nuw i8, ptr %3, i64 16
  %30 = load ptr, ptr %29, align 8
  invoke void @_ZNSt8_Rb_treeIjjSt9_IdentityIjESt4lessIjESaIjEE8_M_eraseEPSt13_Rb_tree_nodeIjE(ptr noundef nonnull align 8 dereferenceable(48) %3, ptr noundef %30)
          to label %_ZNSt3setIjSt4lessIjESaIjEED2Ev.exit20 unwind label %31

31:                                               ; preds = %_ZNSt3setIjSt4lessIjESaIjEED2Ev.exit
  %32 = landingpad { ptr, i32 }
          catch ptr null
  %33 = extractvalue { ptr, i32 } %32, 0
  call void @__clang_call_terminate(ptr %33) #17
  unreachable

_ZNSt3setIjSt4lessIjESaIjEED2Ev.exit20:           ; preds = %_ZNSt3setIjSt4lessIjESaIjEED2Ev.exit
  call void @llvm.lifetime.end.p0(i64 48, ptr nonnull %3) #16
  ret i64 %.not.lcssa

34:                                               ; preds = %22, %9
  %.pn = phi { ptr, i32 } [ %23, %22 ], [ %10, %9 ]
  call void @_ZNSt3setIjSt4lessIjESaIjEED2Ev(ptr noundef nonnull align 8 dereferenceable(48) %3) #16
  call void @llvm.lifetime.end.p0(i64 48, ptr nonnull %3) #16
  resume { ptr, i32 } %.pn
}